target datalayout = "e-m:e-p270:32:32-p271:32:32-p272:64:64-i64:64-i128:128-f80:128-n8:16:32:64-S128"
target triple = "x86_64-pc-linux-gnu"

%"struct.ceres::internal::LinearSolver::Summary" = type { double, i32, i32, %"class.std::__cxx11::basic_string" }
%"class.std::__cxx11::basic_string" = type { %"struct.std::__cxx11::basic_string<char>::_Alloc_hider", i64, %union.anon }
%"struct.std::__cxx11::basic_string<char>::_Alloc_hider" = type { ptr }
%union.anon = type { i64, [8 x i8] }

@.str.14 = private unnamed_addr constant [169 x i8] c"SPARSE_NORMAL_CHOLESKY cannot be used with SUITE_SPARSE because Ceres was not built with support for SuiteSparse. This requires enabling building with -DSUITESPARSE=ON.\00", align 1

; Function Attrs: mustprogress nounwind uwtable
define linkonce_odr hidden void @_ZN5ceres8internal12LinearSolver7SummaryD2Ev(ptr noundef nonnull align 8 dereferenceable(48) %0) unnamed_addr #1 comdat align 2 {
  %2 = alloca ptr, align 8
  store ptr %0, ptr %2, align 8
  %3 = load ptr, ptr %2, align 8
  %4 = getelementptr inbounds %"struct.ceres::internal::LinearSolver::Summary", ptr %3, i32 0, i32 3
  call void @_ZNSt7__cxx1112basic_stringIcSt11char_traitsIcESaIcEED1Ev(ptr noundef nonnull align 8 dereferenceable(32) %4) #18
  ret void
}

; Function Attrs: mustprogress nounwind uwtable
define linkonce_odr hidden void @_ZN5ceres8internal12LinearSolver7SummaryC2Ev(ptr noundef nonnull align 8 dereferenceable(48) %0) unnamed_addr #1 comdat align 2 {
  %2 = alloca ptr, align 8
  store ptr %0, ptr %2, align 8
  %3 = load ptr, ptr %2, align 8
  %4 = getelementptr inbounds %"struct.ceres::internal::LinearSolver::Summary", ptr %3, i32 0, i32 0
  store double -1.000000e+00, ptr %4, align 8
  %5 = getelementptr inbounds %"struct.ceres::internal::LinearSolver::Summary", ptr %3, i32 0, i32 1
  store i32 -1, ptr %5, align 8
  %6 = getelementptr inbounds %"struct.ceres::internal::LinearSolver::Summary", ptr %3, i32 0, i32 2
  store i32 2, ptr %6, align 4
  %7 = getelementptr inbounds %"struct.ceres::internal::LinearSolver::Summary", ptr %3, i32 0, i32 3
  call void @_ZNSt7__cxx1112basic_stringIcSt11char_traitsIcESaIcEEC1Ev(ptr noundef nonnull align 8 dereferenceable(32) %7) #18
  ret void
}

; Function Attrs: mustprogress uwtable
define hidden void @_ZN5ceres8internal33DynamicSparseNormalCholeskySolver25SolveImplUsingSuiteSparseEPNS0_25CompressedRowSparseMatrixEPd(ptr dead_on_unwind noalias writable sret(%"struct.ceres::internal::LinearSolver::Summary") align 8 %0, ptr noundef nonnull align 8 dereferenceable(224) %1, ptr noundef %2, ptr noundef %3) #2 align 2 personality ptr @__gxx_personality_v0 {
  %5 = alloca ptr, align 8
  %6 = alloca ptr, align 8
  %7 = alloca ptr, align 8
  %8 = alloca ptr, align 8
  %9 = alloca i1, align 1
  %10 = alloca ptr, align 8
  %11 = alloca i32, align 4
  store ptr %0, ptr %5, align 8
  store ptr %1, ptr %6, align 8
  store ptr %2, ptr %7, align 8
  store ptr %3, ptr %8, align 8
  store i1 false, ptr %9, align 1
  call void @_ZN5ceres8internal12LinearSolver7SummaryC2Ev(ptr noundef nonnull align 8 dereferenceable(48) %0) #18
  %12 = getelementptr inbounds %"struct.ceres::internal::LinearSolver::Summary", ptr %0, i32 0, i32 1
  store i32 0, ptr %12, align 8
  %13 = getelementptr inbounds %"struct.ceres::internal::LinearSolver::Summary", ptr %0, i32 0, i32 2
  store i32 3, ptr %13, align 4
  %14 = getelementptr inbounds %"struct.ceres::internal::LinearSolver::Summary", ptr %0, i32 0, i32 3
  %15 = invoke noundef nonnull align 8 dereferenceable(32) ptr @_ZNSt7__cxx1112basic_stringIcSt11char_traitsIcESaIcEEaSEPKc(ptr noundef nonnull align 8 dereferenceable(32) %14, ptr noundef @.str.14)
          to label %16 unwind label %18

16:                                               ; preds = %4
  store i1 true, ptr %9, align 1
  %17 = load i1, ptr %9, align 1
  br i1 %17, label %23, label %22

18:                                               ; preds = %4
  %19 = landingpad { ptr, i32 }
          cleanup
  %20 = extractvalue { ptr, i32 } %19, 0
  store ptr %20, ptr %10, align 8
  %21 = extractvalue { ptr, i32 } %19, 1
  store i32 %21, ptr %11, align 4
  call void @_ZN5ceres8internal12LinearSolver7SummaryD2Ev(ptr noundef nonnull align 8 dereferenceable(48) %0) #18
  br label %24

22:                                               ; preds = %16
  call void @_ZN5ceres8internal12LinearSolver7SummaryD2Ev(ptr noundef nonnull align 8 dereferenceable(48) %0) #18
  br label %23

23:                                               ; preds = %22, %16
  ret void

24:                                               ; preds = %18
  %25 = load ptr, ptr %10, align 8
  %26 = load i32, ptr %11, align 4
  %27 = insertvalue { ptr, i32 } poison, ptr %25, 0
  %28 = insertvalue { ptr, i32 } %27, i32 %26, 1
  resume { ptr, i32 } %28
}