; Function Attrs: mustprogress uwtable
define hidden void @_ZN5ceres8internal33DynamicSparseNormalCholeskySolver25SolveImplUsingSuiteSparseEPNS0_25CompressedRowSparseMatrixEPd(ptr dead_on_unwind noalias writable sret(%"struct.ceres::internal::LinearSolver::Summary") align 8 %0, ptr nocapture noundef nonnull readnone align 8 dereferenceable(224) %1, ptr nocapture noundef readnone %2, ptr nocapture noundef readnone %3) local_unnamed_addr #3 align 2 personality ptr @__gxx_personality_v0 {
  store double -1.000000e+00, ptr %0, align 8
  %5 = getelementptr inbounds i8, ptr %0, i64 8
  store i32 -1, ptr %5, align 8
  %6 = getelementptr inbounds i8, ptr %0, i64 12
  store i32 2, ptr %6, align 4
  %7 = getelementptr inbounds i8, ptr %0, i64 16
  tail call void @_ZNSt7__cxx1112basic_stringIcSt11char_traitsIcESaIcEEC1Ev(ptr noundef nonnull align 8 dereferenceable(32) %7) #23
  store i32 0, ptr %5, align 8
  store i32 3, ptr %6, align 4
  %8 = invoke noundef nonnull align 8 dereferenceable(32) ptr @_ZNSt7__cxx1112basic_stringIcSt11char_traitsIcESaIcEEaSEPKc(ptr noundef nonnull align 8 dereferenceable(32) %7, ptr noundef nonnull @.str.14)
          to label %11 unwind label %9

9:                                                ; preds = %4
  %10 = landingpad { ptr, i32 }
          cleanup
  tail call void @_ZNSt7__cxx1112basic_stringIcSt11char_traitsIcESaIcEED1Ev(ptr noundef nonnull align 8 dereferenceable(32) %7) #23
  resume { ptr, i32 } %10

11:                                               ; preds = %4
  ret void
}